; Function Attrs: nounwind uwtable
define ptr @l_Std_Condvar_waitUntil___rarg(ptr noundef %0, ptr noundef %1, ptr noundef %2, ptr noundef %3, ptr noundef %4) #0 {
  %6 = getelementptr inbounds nuw i8, ptr %0, i64 16
  %7 = load ptr, ptr %6, align 8, !tbaa !10
  %8 = ptrtoint ptr %7 to i64
  %9 = and i64 %8, 1
  %.not = icmp eq i64 %9, 0
  br i1 %.not, label %10, label %lean_inc.exit17

10:                                               ; preds = %5
  %.val.i = load i32, ptr %7, align 4, !tbaa !4
  %11 = icmp sgt i32 %.val.i, 0
  br i1 %11, label %12, label %14, !prof !9

12:                                               ; preds = %10
  %13 = add nuw i32 %.val.i, 1
  store i32 %13, ptr %7, align 4, !tbaa !4
  br label %16

14:                                               ; preds = %10
  %.not.i = icmp eq i32 %.val.i, 0
  br i1 %.not.i, label %lean_inc.exit17, label %15

15:                                               ; preds = %14
  tail call void @lean_inc_ref_cold(ptr noundef nonnull %7) #3
  %.val.i19.pr = load i32, ptr %7, align 4, !tbaa !4
  br label %16

16:                                               ; preds = %15, %12
  %.val.i19 = phi i32 [ %.val.i19.pr, %15 ], [ %13, %12 ]
  %17 = icmp sgt i32 %.val.i19, 0
  br i1 %17, label %18, label %20, !prof !14

18:                                               ; preds = %16
  %19 = add nuw i32 %.val.i19, 1
  store i32 %19, ptr %7, align 4, !tbaa !4
  br label %lean_inc.exit17

20:                                               ; preds = %16
  %.not.i20 = icmp eq i32 %.val.i19, 0
  br i1 %.not.i20, label %lean_inc.exit17, label %21

21:                                               ; preds = %20
  tail call void @lean_inc_ref_cold(ptr noundef nonnull %7) #3
  br label %lean_inc.exit17

lean_inc.exit17:                                  ; preds = %14, %21, %20, %18, %5
  %22 = ptrtoint ptr %0 to i64
  %23 = and i64 %22, 1
  %.not30 = icmp eq i64 %23, 0
  br i1 %.not30, label %24, label %lean_inc.exit

24:                                               ; preds = %lean_inc.exit17
  %.val.i22 = load i32, ptr %0, align 4, !tbaa !4
  %25 = icmp sgt i32 %.val.i22, 0
  br i1 %25, label %26, label %28, !prof !9

26:                                               ; preds = %24
  %27 = add nuw i32 %.val.i22, 1
  store i32 %27, ptr %0, align 4, !tbaa !4
  br label %lean_inc.exit

28:                                               ; preds = %24
  %.not.i23 = icmp eq i32 %.val.i22, 0
  br i1 %.not.i23, label %lean_inc.exit, label %29

29:                                               ; preds = %28
  tail call void @lean_inc_ref_cold(ptr noundef nonnull %0) #3
  br label %lean_inc.exit

lean_inc.exit:                                    ; preds = %29, %28, %26, %lean_inc.exit17
  %30 = tail call ptr @l_Lean_Loop_forIn_loop___at_Std_Condvar_waitUntil___spec__1___rarg(ptr noundef nonnull %0, ptr noundef %1, ptr noundef %2, ptr noundef %3, ptr noundef %4, ptr noundef %7, ptr nonnull poison)
  tail call void @lean_inc_heartbeat() #3
  %31 = tail call noalias ptr @mi_malloc_small(i64 noundef 32) #3
  %32 = icmp eq ptr %31, null
  br i1 %32, label %33, label %lean_alloc_closure.exit

33:                                               ; preds = %lean_inc.exit
  tail call void @lean_internal_panic_out_of_memory() #4
  unreachable

lean_alloc_closure.exit:                          ; preds = %lean_inc.exit
  %34 = getelementptr inbounds nuw i8, ptr %31, i64 4
  store i32 1, ptr %31, align 4, !tbaa !4
  store i32 -184549344, ptr %34, align 4
  %35 = getelementptr inbounds nuw i8, ptr %31, i64 8
  store ptr @l_Std_Condvar_waitUntil___rarg___lambda__1___boxed, ptr %35, align 8, !tbaa !10
  %36 = getelementptr inbounds nuw i8, ptr %31, i64 16
  store i16 2, ptr %36, align 8, !tbaa !12
  %37 = getelementptr inbounds nuw i8, ptr %31, i64 18
  store i16 1, ptr %37, align 2, !tbaa !12
  %38 = getelementptr inbounds nuw i8, ptr %31, i64 24
  store ptr %0, ptr %38, align 8, !tbaa !10
  %39 = tail call ptr @lean_apply_4(ptr noundef %7, ptr noundef nonnull inttoptr (i64 1 to ptr), ptr noundef nonnull inttoptr (i64 1 to ptr), ptr noundef %30, ptr noundef nonnull %31) #3
  ret ptr %39
}